target datalayout = "e-m:e-p270:32:32-p271:32:32-p272:64:64-i64:64-i128:128-f80:128-n8:16:32:64-S128"
target triple = "x86_64-pc-linux-gnu"

@.str = private unnamed_addr constant [8 x i8] c"Warning\00", align 1
@.str.1 = private unnamed_addr constant [19 x i8] c"b3Warning[%s,%d]:\0A\00", align 1
@.str.2 = private unnamed_addr constant [140 x i8] c"generated/home/dtcxzyw/WorkSpace/Projects/compilers/llvm-opt-benchmark/bench/bullet3/bullet3/src/Bullet3OpenCL/Initialize/b3OpenCLUtils.cpp\00", align 1
@.str.3 = private unnamed_addr constant [13 x i8] c"Warning: %s\0A\00", align 1
@.str.4 = private unnamed_addr constant [17 x i8] c"b3Error[%s,%d]:\0A\00", align 1
@.str.5 = private unnamed_addr constant [11 x i8] c"Error: %s\0A\00", align 1

; Function Attrs: mustprogress uwtable
define dso_local void @_Z17MyFatalBreakAPPLEPKcPKvmPv(ptr noundef %0, ptr noundef %1, i64 noundef %2, ptr noundef %3) #0 {
  %5 = alloca ptr, align 8
  %6 = alloca ptr, align 8
  %7 = alloca i64, align 8
  %8 = alloca ptr, align 8
  %9 = alloca ptr, align 8
  store ptr %0, ptr %5, align 8, !tbaa !4
  store ptr %1, ptr %6, align 8, !tbaa !9
  store i64 %2, ptr %7, align 8, !tbaa !10
  store ptr %3, ptr %8, align 8, !tbaa !9
  call void @llvm.lifetime.start.p0(i64 8, ptr %9) #9
  %10 = load ptr, ptr %5, align 8, !tbaa !4
  %11 = call noundef ptr @strstr(ptr noundef %10, ptr noundef @.str) #10
  store ptr %11, ptr %9, align 8, !tbaa !4
  %12 = load ptr, ptr %9, align 8, !tbaa !4
  %13 = icmp ne ptr %12, null
  br i1 %13, label %14, label %19

14:                                               ; preds = %4
  br label %15

15:                                               ; preds = %14
  call void (ptr, ...) @b3OutputWarningMessageVarArgsInternal(ptr noundef @.str.1, ptr noundef @.str.2, i32 noundef 84)
  %16 = load ptr, ptr %5, align 8, !tbaa !4
  call void (ptr, ...) @b3OutputWarningMessageVarArgsInternal(ptr noundef @.str.3, ptr noundef %16)
  br label %17

17:                                               ; preds = %15
  br label %18

18:                                               ; preds = %17
  br label %24

19:                                               ; preds = %4
  br label %20

20:                                               ; preds = %19
  call void (ptr, ...) @b3OutputErrorMessageVarArgsInternal(ptr noundef @.str.4, ptr noundef @.str.2, i32 noundef 88)
  %21 = load ptr, ptr %5, align 8, !tbaa !4
  call void (ptr, ...) @b3OutputErrorMessageVarArgsInternal(ptr noundef @.str.5, ptr noundef %21)
  br label %22

22:                                               ; preds = %20
  br label %23

23:                                               ; preds = %22
  br label %24

24:                                               ; preds = %23, %18
  call void @llvm.lifetime.end.p0(i64 8, ptr %9) #9
  ret void
}