; Function Attrs: mustprogress uwtable
define dso_local void @_Z17MyFatalBreakAPPLEPKcPKvmPv(ptr noundef %0, ptr noundef readnone captures(none) %1, i64 noundef %2, ptr noundef readnone captures(none) %3) local_unnamed_addr #0 {
  %5 = tail call noundef ptr @strstr(ptr noundef nonnull dereferenceable(1) %0, ptr noundef nonnull dereferenceable(1) @.str) #11
  %.not = icmp eq ptr %5, null
  br i1 %.not, label %7, label %6

6:                                                ; preds = %4
  tail call void (ptr, ...) @b3OutputWarningMessageVarArgsInternal(ptr noundef nonnull @.str.1, ptr noundef nonnull @.str.2, i32 noundef 84)
  tail call void (ptr, ...) @b3OutputWarningMessageVarArgsInternal(ptr noundef nonnull @.str.3, ptr noundef nonnull %0)
  br label %8

7:                                                ; preds = %4
  tail call void (ptr, ...) @b3OutputErrorMessageVarArgsInternal(ptr noundef nonnull @.str.4, ptr noundef nonnull @.str.2, i32 noundef 88)
  tail call void (ptr, ...) @b3OutputErrorMessageVarArgsInternal(ptr noundef nonnull @.str.5, ptr noundef nonnull %0)
  br label %8

8:                                                ; preds = %7, %6
  ret void
}